; Function Attrs: nounwind uwtable
define ptr @l_Lean_SMap_instForInProd___rarg___lambda__2(ptr noundef %0, ptr noundef %1, ptr noundef %2, ptr noundef %3, ptr noundef %4, ptr noundef %5) #0 {
  tail call void @lean_inc_heartbeat() #3
  %7 = tail call noalias ptr @mi_malloc_small(i64 noundef 24) #3
  %8 = icmp eq ptr %7, null
  br i1 %8, label %9, label %lean_alloc_ctor.exit

9:                                                ; preds = %6
  tail call void @lean_internal_panic_out_of_memory() #4
  unreachable

lean_alloc_ctor.exit:                             ; preds = %6
  %10 = getelementptr inbounds nuw i8, ptr %7, i64 4
  store i32 1, ptr %7, align 4, !tbaa !10
  store i32 131096, ptr %10, align 4
  %11 = getelementptr inbounds nuw i8, ptr %7, i64 8
  store ptr %3, ptr %11, align 8, !tbaa !4
  %12 = getelementptr inbounds nuw i8, ptr %7, i64 16
  store ptr %4, ptr %12, align 8, !tbaa !4
  %13 = tail call ptr @lean_apply_2(ptr noundef %0, ptr noundef nonnull %7, ptr noundef %5) #3
  tail call void @lean_inc_heartbeat() #3
  %14 = tail call noalias ptr @mi_malloc_small(i64 noundef 32) #3
  %15 = icmp eq ptr %14, null
  br i1 %15, label %16, label %lean_alloc_closure.exit

16:                                               ; preds = %lean_alloc_ctor.exit
  tail call void @lean_internal_panic_out_of_memory() #4
  unreachable

lean_alloc_closure.exit:                          ; preds = %lean_alloc_ctor.exit
  %17 = getelementptr inbounds nuw i8, ptr %14, i64 4
  store i32 1, ptr %14, align 4, !tbaa !10
  store i32 -184549344, ptr %17, align 4
  %18 = getelementptr inbounds nuw i8, ptr %14, i64 8
  store ptr @l_Lean_SMap_instForInProd___rarg___lambda__1, ptr %18, align 8, !tbaa !4
  %19 = getelementptr inbounds nuw i8, ptr %14, i64 16
  store i16 2, ptr %19, align 8, !tbaa !13
  %20 = getelementptr inbounds nuw i8, ptr %14, i64 18
  store i16 1, ptr %20, align 2, !tbaa !13
  %21 = getelementptr inbounds nuw i8, ptr %14, i64 24
  store ptr %1, ptr %21, align 8, !tbaa !4
  %22 = tail call ptr @lean_apply_4(ptr noundef %2, ptr noundef nonnull inttoptr (i64 1 to ptr), ptr noundef nonnull inttoptr (i64 1 to ptr), ptr noundef %13, ptr noundef nonnull %14) #3
  ret ptr %22
}